; Function Attrs: nounwind uwtable
define ptr @l_Lean_Elab_PartialFixpoint_deriveInduction___lambda__13___boxed(ptr noundef readonly captures(none) %0) #0 {
  %2 = load ptr, ptr %0, align 8, !tbaa !9
  %3 = getelementptr inbounds nuw i8, ptr %0, i64 8
  %4 = load ptr, ptr %3, align 8, !tbaa !9
  %5 = getelementptr inbounds nuw i8, ptr %0, i64 16
  %6 = load ptr, ptr %5, align 8, !tbaa !9
  %7 = getelementptr inbounds nuw i8, ptr %0, i64 24
  %8 = load ptr, ptr %7, align 8, !tbaa !9
  %9 = getelementptr inbounds nuw i8, ptr %0, i64 32
  %10 = load ptr, ptr %9, align 8, !tbaa !9
  %11 = getelementptr inbounds nuw i8, ptr %0, i64 40
  %12 = load ptr, ptr %11, align 8, !tbaa !9
  %13 = getelementptr inbounds nuw i8, ptr %0, i64 48
  %14 = load ptr, ptr %13, align 8, !tbaa !9
  %15 = getelementptr inbounds nuw i8, ptr %0, i64 56
  %16 = load ptr, ptr %15, align 8, !tbaa !9
  %17 = getelementptr inbounds nuw i8, ptr %0, i64 64
  %18 = load ptr, ptr %17, align 8, !tbaa !9
  %19 = getelementptr inbounds nuw i8, ptr %0, i64 72
  %20 = load ptr, ptr %19, align 8, !tbaa !9
  %21 = getelementptr inbounds nuw i8, ptr %0, i64 80
  %22 = load ptr, ptr %21, align 8, !tbaa !9
  %23 = getelementptr inbounds nuw i8, ptr %0, i64 88
  %24 = load ptr, ptr %23, align 8, !tbaa !9
  %25 = getelementptr inbounds nuw i8, ptr %0, i64 96
  %26 = load ptr, ptr %25, align 8, !tbaa !9
  %27 = getelementptr inbounds nuw i8, ptr %0, i64 104
  %28 = load ptr, ptr %27, align 8, !tbaa !9
  %29 = getelementptr inbounds nuw i8, ptr %0, i64 112
  %30 = load ptr, ptr %29, align 8, !tbaa !9
  %31 = getelementptr inbounds nuw i8, ptr %0, i64 120
  %32 = load ptr, ptr %31, align 8, !tbaa !9
  %33 = getelementptr inbounds nuw i8, ptr %0, i64 128
  %34 = load ptr, ptr %33, align 8, !tbaa !9
  %35 = getelementptr inbounds nuw i8, ptr %0, i64 136
  %36 = load ptr, ptr %35, align 8, !tbaa !9
  %37 = getelementptr inbounds nuw i8, ptr %0, i64 144
  %38 = load ptr, ptr %37, align 8, !tbaa !9
  %39 = getelementptr inbounds nuw i8, ptr %0, i64 152
  %40 = load ptr, ptr %39, align 8, !tbaa !9
  %41 = getelementptr inbounds nuw i8, ptr %0, i64 160
  %42 = load ptr, ptr %41, align 8, !tbaa !9
  %43 = getelementptr i8, ptr %16, i64 8
  %.val = load i64, ptr %43, align 8, !tbaa !11
  %44 = ptrtoint ptr %16 to i64
  %45 = and i64 %44, 1
  %.not = icmp eq i64 %45, 0
  br i1 %.not, label %46, label %lean_dec.exit45

46:                                               ; preds = %1
  %47 = load i32, ptr %16, align 4, !tbaa !4
  %48 = icmp sgt i32 %47, 1
  br i1 %48, label %49, label %51, !prof !14

49:                                               ; preds = %46
  %50 = add nsw i32 %47, -1
  store i32 %50, ptr %16, align 4, !tbaa !4
  br label %lean_dec.exit45

51:                                               ; preds = %46
  %.not.i = icmp eq i32 %47, 0
  br i1 %.not.i, label %lean_dec.exit45, label %52

52:                                               ; preds = %51
  tail call void @lean_dec_ref_cold(ptr noundef nonnull %16) #6
  br label %lean_dec.exit45

lean_dec.exit45:                                  ; preds = %52, %51, %49, %1
  %53 = tail call ptr @l_Lean_Elab_PartialFixpoint_deriveInduction___lambda__13(ptr noundef %2, ptr noundef %4, ptr noundef %6, ptr noundef %8, ptr noundef %10, ptr noundef %12, ptr noundef %14, i64 noundef %.val, ptr noundef %18, ptr noundef %20, ptr noundef %22, ptr noundef %24, ptr noundef %26, ptr noundef %28, ptr noundef %30, ptr noundef %32, ptr noundef %34, ptr noundef %36, ptr noundef %38, ptr noundef %40, ptr noundef %42)
  %54 = ptrtoint ptr %6 to i64
  %55 = and i64 %54, 1
  %.not48 = icmp eq i64 %55, 0
  br i1 %.not48, label %56, label %lean_dec.exit

56:                                               ; preds = %lean_dec.exit45
  %57 = load i32, ptr %6, align 4, !tbaa !4
  %58 = icmp sgt i32 %57, 1
  br i1 %58, label %59, label %61, !prof !14

59:                                               ; preds = %56
  %60 = add nsw i32 %57, -1
  store i32 %60, ptr %6, align 4, !tbaa !4
  br label %lean_dec.exit

61:                                               ; preds = %56
  %.not.i46 = icmp eq i32 %57, 0
  br i1 %.not.i46, label %lean_dec.exit, label %62

62:                                               ; preds = %61
  tail call void @lean_dec_ref_cold(ptr noundef nonnull %6) #6
  br label %lean_dec.exit

lean_dec.exit:                                    ; preds = %62, %61, %59, %lean_dec.exit45
  ret ptr %53
}